target datalayout = "e-m:e-p270:32:32-p271:32:32-p272:64:64-i64:64-i128:128-f80:128-n8:16:32:64-S128"
target triple = "x86_64-pc-linux-gnu"

%"class.icu_77::CollationFastLatinBuilder" = type <{ %"class.icu_77::UObject", i64, i64, [448 x [2 x i64]], %"class.icu_77::UVector64", %"class.icu_77::UVector64", ptr, [4 x i32], i32, i32, i32, i32, i8, [7 x i8], %"class.icu_77::UnicodeString", i32, [4 x i8] }>
%"class.icu_77::UObject" = type { ptr }
%"class.icu_77::UVector64" = type { %"class.icu_77::UObject", i32, i32, i32, ptr }
%"class.icu_77::UnicodeString" = type { %"class.icu_77::Replaceable", %"union.icu_77::UnicodeString::StackBufferOrFields" }
%"class.icu_77::Replaceable" = type { %"class.icu_77::UObject" }
%"union.icu_77::UnicodeString::StackBufferOrFields" = type { %struct.anon.0, [32 x i8] }
%struct.anon.0 = type { i16, i32, i32, ptr }

; Function Attrs: mustprogress nounwind uwtable
define noundef signext i8 @_ZNK6icu_7725CollationFastLatinBuilder11inSameGroupEjj(ptr noundef nonnull align 8 dereferenceable(7372) %0, i32 noundef %1, i32 noundef %2) #5 align 2 {
  %4 = alloca i8, align 1
  %5 = alloca ptr, align 8
  %6 = alloca i32, align 4
  %7 = alloca i32, align 4
  %8 = alloca i32, align 4
  %9 = alloca i32, align 4
  %10 = alloca i32, align 4
  %11 = alloca i32, align 4
  store ptr %0, ptr %5, align 8, !tbaa !3
  store i32 %1, ptr %6, align 4, !tbaa !38
  store i32 %2, ptr %7, align 4, !tbaa !38
  %12 = load ptr, ptr %5, align 8
  %13 = load i32, ptr %6, align 4, !tbaa !38
  %14 = getelementptr inbounds nuw %"class.icu_77::CollationFastLatinBuilder", ptr %12, i32 0, i32 11
  %15 = load i32, ptr %14, align 4, !tbaa !26
  %16 = icmp uge i32 %13, %15
  br i1 %16, label %17, label %23

17:                                               ; preds = %3
  %18 = load i32, ptr %7, align 4, !tbaa !38
  %19 = getelementptr inbounds nuw %"class.icu_77::CollationFastLatinBuilder", ptr %12, i32 0, i32 11
  %20 = load i32, ptr %19, align 4, !tbaa !26
  %21 = icmp uge i32 %18, %20
  %22 = zext i1 %21 to i8
  store i8 %22, ptr %4, align 1
  br label %78

23:                                               ; preds = %3
  %24 = load i32, ptr %7, align 4, !tbaa !38
  %25 = getelementptr inbounds nuw %"class.icu_77::CollationFastLatinBuilder", ptr %12, i32 0, i32 11
  %26 = load i32, ptr %25, align 4, !tbaa !26
  %27 = icmp uge i32 %24, %26
  br i1 %27, label %28, label %29

28:                                               ; preds = %23
  store i8 0, ptr %4, align 1
  br label %78

29:                                               ; preds = %23
  br label %30

30:                                               ; preds = %29
  call void @llvm.lifetime.start.p0(i64 4, ptr %8) #9
  %31 = getelementptr inbounds nuw %"class.icu_77::CollationFastLatinBuilder", ptr %12, i32 0, i32 7
  %32 = getelementptr inbounds [4 x i32], ptr %31, i64 0, i64 3
  %33 = load i32, ptr %32, align 4, !tbaa !38
  store i32 %33, ptr %8, align 4, !tbaa !38
  %34 = load i32, ptr %6, align 4, !tbaa !38
  %35 = load i32, ptr %8, align 4, !tbaa !38
  %36 = icmp ugt i32 %34, %35
  br i1 %36, label %37, label %42

37:                                               ; preds = %30
  %38 = load i32, ptr %7, align 4, !tbaa !38
  %39 = load i32, ptr %8, align 4, !tbaa !38
  %40 = icmp ugt i32 %38, %39
  %41 = zext i1 %40 to i8
  store i8 %41, ptr %4, align 1
  store i32 1, ptr %9, align 4
  br label %77

42:                                               ; preds = %30
  %43 = load i32, ptr %7, align 4, !tbaa !38
  %44 = load i32, ptr %8, align 4, !tbaa !38
  %45 = icmp ugt i32 %43, %44
  br i1 %45, label %46, label %47

46:                                               ; preds = %42
  store i8 0, ptr %4, align 1
  store i32 1, ptr %9, align 4
  br label %77

47:                                               ; preds = %42
  br label %48

48:                                               ; preds = %47
  call void @llvm.lifetime.start.p0(i64 4, ptr %10) #9
  store i32 0, ptr %10, align 4, !tbaa !38
  br label %49

49:                                               ; preds = %73, %48
  call void @llvm.lifetime.start.p0(i64 4, ptr %11) #9
  %50 = getelementptr inbounds nuw %"class.icu_77::CollationFastLatinBuilder", ptr %12, i32 0, i32 7
  %51 = load i32, ptr %10, align 4, !tbaa !38
  %52 = sext i32 %51 to i64
  %53 = getelementptr inbounds [4 x i32], ptr %50, i64 0, i64 %52
  %54 = load i32, ptr %53, align 4, !tbaa !38
  store i32 %54, ptr %11, align 4, !tbaa !38
  %55 = load i32, ptr %6, align 4, !tbaa !38
  %56 = load i32, ptr %11, align 4, !tbaa !38
  %57 = icmp ule i32 %55, %56
  br i1 %57, label %58, label %63

58:                                               ; preds = %49
  %59 = load i32, ptr %7, align 4, !tbaa !38
  %60 = load i32, ptr %11, align 4, !tbaa !38
  %61 = icmp ule i32 %59, %60
  %62 = zext i1 %61 to i8
  store i8 %62, ptr %4, align 1
  store i32 1, ptr %9, align 4
  br label %70

63:                                               ; preds = %49
  %64 = load i32, ptr %7, align 4, !tbaa !38
  %65 = load i32, ptr %11, align 4, !tbaa !38
  %66 = icmp ule i32 %64, %65
  br i1 %66, label %67, label %68

67:                                               ; preds = %63
  store i8 0, ptr %4, align 1
  store i32 1, ptr %9, align 4
  br label %70

68:                                               ; preds = %63
  br label %69

69:                                               ; preds = %68
  store i32 0, ptr %9, align 4
  br label %70

70:                                               ; preds = %69, %67, %58
  call void @llvm.lifetime.end.p0(i64 4, ptr %11) #9
  %71 = load i32, ptr %9, align 4
  switch i32 %71, label %76 [
    i32 0, label %72
  ]

72:                                               ; preds = %70
  br label %73

73:                                               ; preds = %72
  %74 = load i32, ptr %10, align 4, !tbaa !38
  %75 = add nsw i32 %74, 1
  store i32 %75, ptr %10, align 4, !tbaa !38
  br label %49, !llvm.loop !61

76:                                               ; preds = %70
  call void @llvm.lifetime.end.p0(i64 4, ptr %10) #9
  br label %77

77:                                               ; preds = %76, %46, %37
  call void @llvm.lifetime.end.p0(i64 4, ptr %8) #9
  br label %78

78:                                               ; preds = %77, %28, %17
  %79 = load i8, ptr %4, align 1
  ret i8 %79
}