; Function Attrs: mustprogress nofree norecurse nosync nounwind willreturn memory(argmem: read) uwtable
define noundef signext range(i8 0, 2) i8 @_ZNK6icu_7725CollationFastLatinBuilder11inSameGroupEjj(ptr noundef nonnull readonly align 8 captures(none) dereferenceable(7372) %0, i32 noundef %1, i32 noundef %2) local_unnamed_addr #7 align 2 {
  %4 = getelementptr inbounds nuw i8, ptr %0, i64 7292
  %5 = load i32, ptr %4, align 4, !tbaa !23
  %.not = icmp ult i32 %1, %5
  br i1 %.not, label %8, label %6

6:                                                ; preds = %3
  %7 = icmp uge i32 %2, %5
  br label %.loopexit

8:                                                ; preds = %3
  %.not29 = icmp ult i32 %2, %5
  br i1 %.not29, label %9, label %.loopexit

9:                                                ; preds = %8
  %10 = getelementptr inbounds nuw i8, ptr %0, i64 7264
  %11 = getelementptr inbounds nuw i8, ptr %0, i64 7276
  %12 = load i32, ptr %11, align 4, !tbaa !28
  %13 = icmp ugt i32 %1, %12
  %14 = icmp ugt i32 %2, %12
  %brmerge = or i1 %13, %14
  %.mux = and i1 %13, %14
  br i1 %brmerge, label %.loopexit, label %.preheader

.preheader:                                       ; preds = %9
  %15 = load i32, ptr %10, align 8, !tbaa !28
  %.not3035 = icmp ugt i32 %1, %15
  br i1 %.not3035, label %.lr.ph, label %.thread

16:                                               ; preds = %.lr.ph
  %indvars.iv.next = add nuw nsw i64 %indvars.iv, 1
  %17 = getelementptr inbounds nuw [4 x i32], ptr %10, i64 0, i64 %indvars.iv.next
  %18 = load i32, ptr %17, align 4, !tbaa !28
  %.not30 = icmp ugt i32 %1, %18
  br i1 %.not30, label %.lr.ph, label %.thread, !llvm.loop !61

.thread:                                          ; preds = %16, %.preheader
  %.lcssa = phi i32 [ %15, %.preheader ], [ %18, %16 ]
  %19 = icmp ule i32 %2, %.lcssa
  br label %.loopexit

.lr.ph:                                           ; preds = %.preheader, %16
  %indvars.iv = phi i64 [ %indvars.iv.next, %16 ], [ 0, %.preheader ]
  %20 = phi i32 [ %18, %16 ], [ %15, %.preheader ]
  %.not31 = icmp ugt i32 %2, %20
  br i1 %.not31, label %16, label %.loopexit

.loopexit:                                        ; preds = %.lr.ph, %9, %.thread, %8, %6
  %.0.shrunk = phi i1 [ %7, %6 ], [ false, %8 ], [ %19, %.thread ], [ %.mux, %9 ], [ false, %.lr.ph ]
  %.0 = zext i1 %.0.shrunk to i8
  ret i8 %.0
}